target datalayout = "e-m:e-p270:32:32-p271:32:32-p272:64:64-i64:64-i128:128-f80:128-n8:16:32:64-S128"
target triple = "x86_64-pc-linux-gnu"

%struct.slurm_conf_t = type { i64, ptr, i16, ptr, ptr, ptr, ptr, ptr, i16, ptr, ptr, ptr, ptr, ptr, ptr, ptr, i16, ptr, ptr, ptr, ptr, i16, ptr, ptr, ptr, i64, ptr, ptr, ptr, ptr, i16, ptr, ptr, i16, i32, ptr, i32, ptr, i32, i32, ptr, ptr, i64, i64, ptr, i16, i16, ptr, i32, i32, ptr, i32, ptr, i32, i16, i16, i16, ptr, i16, i16, ptr, ptr, i32, i16, i16, ptr, i32, i16, ptr, ptr, ptr, ptr, i16, ptr, ptr, ptr, ptr, i32, ptr, ptr, ptr, ptr, i16, i16, ptr, i32, i32, i32, i16, i16, ptr, ptr, i16, ptr, ptr, i32, i32, i32, i32, i32, i64, i32, i32, i16, ptr, ptr, i32, ptr, ptr, ptr, i16, i32, ptr, ptr, i16, ptr, ptr, i32, i16, ptr, ptr, ptr, ptr, i32, i32, i16, i16, i32, ptr, i16, ptr, i32, i32, i32, i32, i32, i32, ptr, i16, ptr, ptr, i32, i16, ptr, i32, i16, i16, ptr, ptr, ptr, i16, ptr, ptr, ptr, ptr, i16, i16, ptr, i16, ptr, i16, ptr, i16, ptr, i16, ptr, ptr, ptr, ptr, i16, ptr, ptr, ptr, i32, ptr, i32, ptr, ptr, i16, ptr, ptr, i32, i16, ptr, ptr, i16, i16, ptr, i16, ptr, ptr, ptr, i32, ptr, i16, i16, ptr, ptr, ptr, ptr, ptr, ptr, ptr, ptr, i16, i32, i16, ptr, ptr, ptr, ptr, i32, ptr, ptr, ptr, i16, ptr, ptr, ptr, i16, ptr, i16, ptr, i16, i16, ptr }
%struct.sockaddr_storage = type { i16, [118 x i8], i64 }

@slurm_conf = external global %struct.slurm_conf_t, align 8
@.str.16 = private unnamed_addr constant [50 x i8] c"NET: %s: unable to resolve peername for fd:%d: %m\00", align 1
@__func__.fd_resolve_peer = private unnamed_addr constant [16 x i8] c"fd_resolve_peer\00", align 1

; Function Attrs: nounwind uwtable
define dso_local ptr @fd_resolve_peer(i32 noundef %0) #0 {
  %2 = alloca ptr, align 8
  %3 = alloca i32, align 4
  %4 = alloca %struct.sockaddr_storage, align 8
  %5 = alloca i32, align 4
  %6 = alloca i32, align 4
  %7 = alloca ptr, align 8
  %8 = alloca i32, align 4
  store i32 %0, ptr %3, align 4
  call void @llvm.lifetime.start.p0(i64 128, ptr %4) #10
  call void @llvm.memset.p0.i64(ptr align 8 %4, i8 0, i64 128, i1 false)
  call void @llvm.lifetime.start.p0(i64 4, ptr %5) #10
  store i32 128, ptr %5, align 4
  call void @llvm.lifetime.start.p0(i64 4, ptr %6) #10
  %9 = call ptr @__errno_location() #12
  %10 = load i32, ptr %9, align 4
  store i32 %10, ptr %6, align 4
  call void @llvm.lifetime.start.p0(i64 8, ptr %7) #10
  %11 = load i32, ptr %3, align 4
  %12 = icmp slt i32 %11, 0
  br i1 %12, label %13, label %14

13:                                               ; preds = %1
  store ptr null, ptr %2, align 8
  store i32 1, ptr %8, align 4
  br label %41

14:                                               ; preds = %1
  %15 = load i32, ptr %3, align 4
  %16 = call i32 @slurm_get_peer_addr(i32 noundef %15, ptr noundef %4)
  %17 = icmp ne i32 %16, 0
  br i1 %17, label %18, label %35

18:                                               ; preds = %14
  br label %19

19:                                               ; preds = %18
  %20 = load i64, ptr getelementptr inbounds nuw (%struct.slurm_conf_t, ptr @slurm_conf, i32 0, i32 42), align 8
  %21 = and i64 %20, 1024
  %22 = icmp ne i64 %21, 0
  br i1 %22, label %23, label %32

23:                                               ; preds = %19
  br label %24

24:                                               ; preds = %23
  %25 = call i32 @get_log_level()
  %26 = icmp sge i32 %25, 4
  br i1 %26, label %27, label %29

27:                                               ; preds = %24
  %28 = load i32, ptr %3, align 4
  call void (i32, ptr, ...) @log_var(i32 noundef 4, ptr noundef @.str.16, ptr noundef @__func__.fd_resolve_peer, i32 noundef %28)
  br label %29

29:                                               ; preds = %27, %24
  br label %30

30:                                               ; preds = %29
  br label %31

31:                                               ; preds = %30
  br label %32

32:                                               ; preds = %31, %19
  br label %33

33:                                               ; preds = %32
  br label %34

34:                                               ; preds = %33
  store ptr null, ptr %2, align 8
  store i32 1, ptr %8, align 4
  br label %41

35:                                               ; preds = %14
  %36 = load i32, ptr %5, align 4
  %37 = call ptr @sockaddr_to_string(ptr noundef %4, i32 noundef %36)
  store ptr %37, ptr %7, align 8
  %38 = load i32, ptr %6, align 4
  %39 = call ptr @__errno_location() #12
  store i32 %38, ptr %39, align 4
  %40 = load ptr, ptr %7, align 8
  store ptr %40, ptr %2, align 8
  store i32 1, ptr %8, align 4
  br label %41

41:                                               ; preds = %35, %34, %13
  call void @llvm.lifetime.end.p0(i64 8, ptr %7) #10
  call void @llvm.lifetime.end.p0(i64 4, ptr %6) #10
  call void @llvm.lifetime.end.p0(i64 4, ptr %5) #10
  call void @llvm.lifetime.end.p0(i64 128, ptr %4) #10
  %42 = load ptr, ptr %2, align 8
  ret ptr %42
}