; Function Attrs: nounwind uwtable
define dso_local ptr @fd_resolve_peer(i32 noundef %0) local_unnamed_addr #0 {
  %2 = alloca %struct.sockaddr_storage, align 8
  call void @llvm.lifetime.start.p0(i64 128, ptr nonnull %2) #10
  call void @llvm.memset.p0.i64(ptr noundef nonnull align 8 dereferenceable(128) %2, i8 0, i64 128, i1 false)
  %3 = tail call ptr @__errno_location() #11
  %4 = load i32, ptr %3, align 4
  %5 = icmp slt i32 %0, 0
  br i1 %5, label %17, label %6

6:                                                ; preds = %1
  %7 = call i32 @slurm_get_peer_addr(i32 noundef %0, ptr noundef nonnull %2) #10
  %.not = icmp eq i32 %7, 0
  br i1 %.not, label %15, label %8

8:                                                ; preds = %6
  %9 = load i64, ptr getelementptr inbounds nuw (i8, ptr @slurm_conf, i64 320), align 8
  %10 = and i64 %9, 1024
  %.not7 = icmp eq i64 %10, 0
  br i1 %.not7, label %17, label %11

11:                                               ; preds = %8
  %12 = call i32 @get_log_level() #10
  %13 = icmp sgt i32 %12, 3
  br i1 %13, label %14, label %17

14:                                               ; preds = %11
  call void (i32, ptr, ...) @log_var(i32 noundef 4, ptr noundef nonnull @.str.16, ptr noundef nonnull @__func__.fd_resolve_peer, i32 noundef %0) #10
  br label %17

15:                                               ; preds = %6
  %16 = call ptr @sockaddr_to_string(ptr noundef nonnull %2, i32 noundef 128) #10
  store i32 %4, ptr %3, align 4
  br label %17

17:                                               ; preds = %8, %14, %11, %1, %15
  %.0 = phi ptr [ %16, %15 ], [ null, %1 ], [ null, %11 ], [ null, %14 ], [ null, %8 ]
  call void @llvm.lifetime.end.p0(i64 128, ptr nonnull %2) #10
  ret ptr %.0
}